; ModuleID = '49/30.c'
source_filename = "49/30.c"
target datalayout = "e-m:e-p270:32:32-p271:32:32-p272:64:64-i64:64-f80:128-n8:16:32:64-S128"
target triple = "x86_64-pc-linux-gnu"

@.str = private unnamed_addr constant [3 x i8] c"%c\00", align 1
@.str.1 = private unnamed_addr constant [2 x i8] c"\0A\00", align 1

; Function Attrs: noinline nounwind uwtable
define dso_local void @main() #0 {
  %1 = alloca [501 x i8], align 16
  %2 = alloca i32, align 4
  %3 = alloca i32, align 4
  %4 = alloca i32, align 4
  %5 = alloca i32, align 4
  %6 = alloca i32, align 4
  %7 = getelementptr inbounds [501 x i8], [501 x i8]* %1, i64 0, i64 0
  %8 = call i32 (i8*, ...) bitcast (i32 (...)* @gets to i32 (i8*, ...)*)(i8* %7)
  %9 = getelementptr inbounds [501 x i8], [501 x i8]* %1, i64 0, i64 0
  %10 = call i64 @strlen(i8* %9) #3
  %11 = trunc i64 %10 to i32
  store i32 %11, i32* %6, align 4
  store i32 1, i32* %3, align 4
  br label %12

12:                                               ; preds = %83, %0
  %13 = load i32, i32* %3, align 4
  %14 = load i32, i32* %6, align 4
  %15 = icmp slt i32 %13, %14
  br i1 %15, label %16, label %86

16:                                               ; preds = %12
  store i32 0, i32* %2, align 4
  br label %17

17:                                               ; preds = %79, %16
  %18 = load i32, i32* %2, align 4
  %19 = load i32, i32* %6, align 4
  %20 = load i32, i32* %3, align 4
  %21 = sub nsw i32 %19, %20
  %22 = icmp slt i32 %18, %21
  br i1 %22, label %23, label %82

23:                                               ; preds = %17
  store i32 0, i32* %4, align 4
  br label %24

24:                                               ; preds = %49, %23
  %25 = load i32, i32* %4, align 4
  %26 = load i32, i32* %3, align 4
  %27 = sdiv i32 %26, 2
  %28 = icmp sle i32 %25, %27
  br i1 %28, label %29, label %52

29:                                               ; preds = %24
  %30 = load i32, i32* %2, align 4
  %31 = load i32, i32* %4, align 4
  %32 = add nsw i32 %30, %31
  %33 = sext i32 %32 to i64
  %34 = getelementptr inbounds [501 x i8], [501 x i8]* %1, i64 0, i64 %33
  %35 = load i8, i8* %34, align 1
  %36 = sext i8 %35 to i32
  %37 = load i32, i32* %2, align 4
  %38 = load i32, i32* %3, align 4
  %39 = add nsw i32 %37, %38
  %40 = load i32, i32* %4, align 4
  %41 = sub nsw i32 %39, %40
  %42 = sext i32 %41 to i64
  %43 = getelementptr inbounds [501 x i8], [501 x i8]* %1, i64 0, i64 %42
  %44 = load i8, i8* %43, align 1
  %45 = sext i8 %44 to i32
  %46 = icmp ne i32 %36, %45
  br i1 %46, label %47, label %48

47:                                               ; preds = %29
  br label %52

48:                                               ; preds = %29
  br label %49

49:                                               ; preds = %48
  %50 = load i32, i32* %4, align 4
  %51 = add nsw i32 %50, 1
  store i32 %51, i32* %4, align 4
  br label %24

52:                                               ; preds = %47, %24
  %53 = load i32, i32* %4, align 4
  %54 = load i32, i32* %3, align 4
  %55 = sdiv i32 %54, 2
  %56 = add nsw i32 %55, 1
  %57 = icmp eq i32 %53, %56
  br i1 %57, label %58, label %78

58:                                               ; preds = %52
  %59 = load i32, i32* %2, align 4
  store i32 %59, i32* %5, align 4
  br label %60

60:                                               ; preds = %73, %58
  %61 = load i32, i32* %5, align 4
  %62 = load i32, i32* %2, align 4
  %63 = load i32, i32* %3, align 4
  %64 = add nsw i32 %62, %63
  %65 = icmp sle i32 %61, %64
  br i1 %65, label %66, label %76

66:                                               ; preds = %60
  %67 = load i32, i32* %5, align 4
  %68 = sext i32 %67 to i64
  %69 = getelementptr inbounds [501 x i8], [501 x i8]* %1, i64 0, i64 %68
  %70 = load i8, i8* %69, align 1
  %71 = sext i8 %70 to i32
  %72 = call i32 (i8*, ...) @printf(i8* getelementptr inbounds ([3 x i8], [3 x i8]* @.str, i64 0, i64 0), i32 %71)
  br label %73

73:                                               ; preds = %66
  %74 = load i32, i32* %5, align 4
  %75 = add nsw i32 %74, 1
  store i32 %75, i32* %5, align 4
  br label %60

76:                                               ; preds = %60
  %77 = call i32 (i8*, ...) @printf(i8* getelementptr inbounds ([2 x i8], [2 x i8]* @.str.1, i64 0, i64 0))
  br label %78

78:                                               ; preds = %76, %52
  br label %79

79:                                               ; preds = %78
  %80 = load i32, i32* %2, align 4
  %81 = add nsw i32 %80, 1
  store i32 %81, i32* %2, align 4
  br label %17

82:                                               ; preds = %17
  br label %83

83:                                               ; preds = %82
  %84 = load i32, i32* %3, align 4
  %85 = add nsw i32 %84, 1
  store i32 %85, i32* %3, align 4
  br label %12

86:                                               ; preds = %12
  ret void
}

declare dso_local i32 @gets(...) #1

; Function Attrs: nounwind readonly
declare dso_local i64 @strlen(i8*) #2

declare dso_local i32 @printf(i8*, ...) #1


!llvm.module.flags = !{!0}
!llvm.ident = !{!1}

!0 = !{i32 1, !"wchar_size", i32 4}
!1 = !{!"clang version 10.0.0-4ubuntu1 "}
